target datalayout = "e-m:e-p270:32:32-p271:32:32-p272:64:64-i64:64-i128:128-f80:128-n8:16:32:64-S128"
target triple = "x86_64-pc-linux-gnu"

%struct.optstruct = type { ptr, ptr, ptr, i64, i32, i32, i32, i32, ptr, ptr, ptr }
%struct.cl_cvd = type { ptr, i32, i32, i32, ptr, ptr, ptr, i32 }

@.str.1 = private unnamed_addr constant [30 x i8] c"/usr/local/etc/freshclam.conf\00", align 1
@.str.2 = private unnamed_addr constant [18 x i8] c"DatabaseDirectory\00", align 1
@stderr = external global ptr, align 8
@.str.3 = private unnamed_addr constant [47 x i8] c"Unable to allocate memory for db directory...\0A\00", align 1
@.str.4 = private unnamed_addr constant [13 x i8] c"%s/daily.cvd\00", align 1
@.str.5 = private unnamed_addr constant [13 x i8] c"%s/daily.cld\00", align 1

; Function Attrs: nounwind uwtable
define ptr @freshdbdir() #0 {
  %1 = alloca ptr, align 8
  %2 = alloca ptr, align 8
  %3 = alloca ptr, align 8
  %4 = alloca ptr, align 8
  %5 = alloca ptr, align 8
  %6 = alloca ptr, align 8
  %7 = alloca ptr, align 8
  %8 = alloca ptr, align 8
  %9 = call ptr @cl_retdbdir()
  store ptr %9, ptr %6, align 8
  %10 = call ptr @optparse(ptr noundef @.str.1, i32 noundef 0, ptr noundef null, i32 noundef 0, i32 noundef 2, i32 noundef 0, ptr noundef null)
  store ptr %10, ptr %4, align 8
  %11 = icmp ne ptr %10, null
  br i1 %11, label %12, label %109

12:                                               ; preds = %0
  %13 = load ptr, ptr %4, align 8
  %14 = call ptr @optget(ptr noundef %13, ptr noundef @.str.2)
  store ptr %14, ptr %5, align 8
  %15 = getelementptr inbounds %struct.optstruct, ptr %14, i32 0, i32 4
  %16 = load i32, ptr %15, align 8
  %17 = icmp ne i32 %16, 0
  br i1 %17, label %18, label %108

18:                                               ; preds = %12
  %19 = load ptr, ptr %6, align 8
  %20 = load ptr, ptr %5, align 8
  %21 = getelementptr inbounds %struct.optstruct, ptr %20, i32 0, i32 2
  %22 = load ptr, ptr %21, align 8
  %23 = call i32 @strcmp(ptr noundef %19, ptr noundef %22) #8
  %24 = icmp ne i32 %23, 0
  br i1 %24, label %25, label %107

25:                                               ; preds = %18
  %26 = load ptr, ptr %5, align 8
  %27 = getelementptr inbounds %struct.optstruct, ptr %26, i32 0, i32 2
  %28 = load ptr, ptr %27, align 8
  %29 = call i64 @strlen(ptr noundef %28) #8
  %30 = load ptr, ptr %6, align 8
  %31 = call i64 @strlen(ptr noundef %30) #8
  %32 = add i64 %29, %31
  %33 = add i64 %32, 30
  %34 = call noalias ptr @malloc(i64 noundef %33) #9
  store ptr %34, ptr %8, align 8
  %35 = load ptr, ptr %8, align 8
  %36 = icmp eq ptr %35, null
  br i1 %36, label %37, label %40

37:                                               ; preds = %25
  %38 = load ptr, ptr @stderr, align 8
  %39 = call i32 (ptr, ptr, ...) @fprintf(ptr noundef %38, ptr noundef @.str.3) #10
  store ptr null, ptr %1, align 8
  br label %118

40:                                               ; preds = %25
  %41 = load ptr, ptr %8, align 8
  %42 = load ptr, ptr %5, align 8
  %43 = getelementptr inbounds %struct.optstruct, ptr %42, i32 0, i32 2
  %44 = load ptr, ptr %43, align 8
  %45 = call i32 (ptr, ptr, ...) @sprintf(ptr noundef %41, ptr noundef @.str.4, ptr noundef %44) #10
  %46 = load ptr, ptr %8, align 8
  %47 = call i32 @access(ptr noundef %46, i32 noundef 4) #10
  %48 = icmp ne i32 %47, 0
  br i1 %48, label %49, label %55

49:                                               ; preds = %40
  %50 = load ptr, ptr %8, align 8
  %51 = load ptr, ptr %5, align 8
  %52 = getelementptr inbounds %struct.optstruct, ptr %51, i32 0, i32 2
  %53 = load ptr, ptr %52, align 8
  %54 = call i32 (ptr, ptr, ...) @sprintf(ptr noundef %50, ptr noundef @.str.5, ptr noundef %53) #10
  br label %55

55:                                               ; preds = %49, %40
  %56 = load ptr, ptr %8, align 8
  %57 = call i32 @access(ptr noundef %56, i32 noundef 4) #10
  %58 = icmp ne i32 %57, 0
  br i1 %58, label %104, label %59

59:                                               ; preds = %55
  %60 = load ptr, ptr %8, align 8
  %61 = call ptr @cl_cvdhead(ptr noundef %60)
  store ptr %61, ptr %2, align 8
  %62 = icmp ne ptr %61, null
  br i1 %62, label %63, label %104

63:                                               ; preds = %59
  %64 = load ptr, ptr %8, align 8
  %65 = load ptr, ptr %6, align 8
  %66 = call i32 (ptr, ptr, ...) @sprintf(ptr noundef %64, ptr noundef @.str.4, ptr noundef %65) #10
  %67 = load ptr, ptr %8, align 8
  %68 = call i32 @access(ptr noundef %67, i32 noundef 4) #10
  %69 = icmp ne i32 %68, 0
  br i1 %69, label %70, label %74

70:                                               ; preds = %63
  %71 = load ptr, ptr %8, align 8
  %72 = load ptr, ptr %6, align 8
  %73 = call i32 (ptr, ptr, ...) @sprintf(ptr noundef %71, ptr noundef @.str.5, ptr noundef %72) #10
  br label %74

74:                                               ; preds = %70, %63
  %75 = load ptr, ptr %8, align 8
  %76 = call i32 @access(ptr noundef %75, i32 noundef 4) #10
  %77 = icmp ne i32 %76, 0
  br i1 %77, label %97, label %78

78:                                               ; preds = %74
  %79 = load ptr, ptr %8, align 8
  %80 = call ptr @cl_cvdhead(ptr noundef %79)
  store ptr %80, ptr %3, align 8
  %81 = icmp ne ptr %80, null
  br i1 %81, label %82, label %97

82:                                               ; preds = %78
  %83 = load ptr, ptr %8, align 8
  call void @free(ptr noundef %83) #10
  %84 = load ptr, ptr %2, align 8
  %85 = getelementptr inbounds %struct.cl_cvd, ptr %84, i32 0, i32 1
  %86 = load i32, ptr %85, align 8
  %87 = load ptr, ptr %3, align 8
  %88 = getelementptr inbounds %struct.cl_cvd, ptr %87, i32 0, i32 1
  %89 = load i32, ptr %88, align 8
  %90 = icmp ugt i32 %86, %89
  br i1 %90, label %91, label %95

91:                                               ; preds = %82
  %92 = load ptr, ptr %5, align 8
  %93 = getelementptr inbounds %struct.optstruct, ptr %92, i32 0, i32 2
  %94 = load ptr, ptr %93, align 8
  store ptr %94, ptr %6, align 8
  br label %95

95:                                               ; preds = %91, %82
  %96 = load ptr, ptr %3, align 8
  call void @cl_cvdfree(ptr noundef %96)
  br label %102

97:                                               ; preds = %78, %74
  %98 = load ptr, ptr %8, align 8
  call void @free(ptr noundef %98) #10
  %99 = load ptr, ptr %5, align 8
  %100 = getelementptr inbounds %struct.optstruct, ptr %99, i32 0, i32 2
  %101 = load ptr, ptr %100, align 8
  store ptr %101, ptr %6, align 8
  br label %102

102:                                              ; preds = %97, %95
  %103 = load ptr, ptr %2, align 8
  call void @cl_cvdfree(ptr noundef %103)
  br label %106

104:                                              ; preds = %59, %55
  %105 = load ptr, ptr %8, align 8
  call void @free(ptr noundef %105) #10
  br label %106

106:                                              ; preds = %104, %102
  br label %107

107:                                              ; preds = %106, %18
  br label %108

108:                                              ; preds = %107, %12
  br label %109

109:                                              ; preds = %108, %0
  %110 = load ptr, ptr %6, align 8
  %111 = call noalias ptr @strdup(ptr noundef %110) #10
  store ptr %111, ptr %7, align 8
  %112 = load ptr, ptr %4, align 8
  %113 = icmp ne ptr %112, null
  br i1 %113, label %114, label %116

114:                                              ; preds = %109
  %115 = load ptr, ptr %4, align 8
  call void @optfree(ptr noundef %115)
  br label %116

116:                                              ; preds = %114, %109
  %117 = load ptr, ptr %7, align 8
  store ptr %117, ptr %1, align 8
  br label %118

118:                                              ; preds = %116, %37
  %119 = load ptr, ptr %1, align 8
  ret ptr %119
}