; Function Attrs: nounwind uwtable
define noalias ptr @freshdbdir() local_unnamed_addr #1 {
  %1 = tail call ptr @cl_retdbdir() #18
  %2 = tail call ptr @optparse(ptr noundef nonnull @.str.1, i32 noundef 0, ptr noundef null, i32 noundef 0, i32 noundef 2, i32 noundef 0, ptr noundef null) #18
  %.not = icmp eq ptr %2, null
  br i1 %.not, label %53, label %3

3:                                                ; preds = %0
  %4 = tail call ptr @optget(ptr noundef nonnull %2, ptr noundef nonnull @.str.2) #18
  %5 = getelementptr inbounds i8, ptr %4, i64 32
  %6 = load i32, ptr %5, align 8
  %.not40 = icmp eq i32 %6, 0
  br i1 %.not40, label %55, label %7

7:                                                ; preds = %3
  %8 = getelementptr inbounds i8, ptr %4, i64 16
  %9 = load ptr, ptr %8, align 8
  %10 = tail call i32 @strcmp(ptr noundef nonnull dereferenceable(1) %1, ptr noundef nonnull dereferenceable(1) %9) #19
  %.not41 = icmp eq i32 %10, 0
  br i1 %.not41, label %55, label %11

11:                                               ; preds = %7
  %12 = tail call i64 @strlen(ptr noundef nonnull dereferenceable(1) %9) #19
  %13 = tail call i64 @strlen(ptr noundef nonnull dereferenceable(1) %1) #19
  %14 = add i64 %12, 30
  %15 = add i64 %14, %13
  %16 = tail call noalias ptr @malloc(i64 noundef %15) #20
  %17 = icmp eq ptr %16, null
  br i1 %17, label %18, label %21

18:                                               ; preds = %11
  %19 = load ptr, ptr @stderr, align 8
  %20 = tail call i64 @fwrite(ptr nonnull @.str.3, i64 46, i64 1, ptr %19) #21
  br label %57

21:                                               ; preds = %11
  %22 = tail call i32 (ptr, ptr, ...) @sprintf(ptr noundef nonnull dereferenceable(1) %16, ptr noundef nonnull dereferenceable(1) @.str.4, ptr noundef %9) #18
  %23 = tail call i32 @access(ptr noundef nonnull %16, i32 noundef 4) #18
  %.not42 = icmp eq i32 %23, 0
  br i1 %.not42, label %27, label %24

24:                                               ; preds = %21
  %25 = load ptr, ptr %8, align 8
  %26 = tail call i32 (ptr, ptr, ...) @sprintf(ptr noundef nonnull dereferenceable(1) %16, ptr noundef nonnull dereferenceable(1) @.str.5, ptr noundef %25) #18
  br label %27

27:                                               ; preds = %24, %21
  %28 = tail call i32 @access(ptr noundef nonnull %16, i32 noundef 4) #18
  %.not43 = icmp eq i32 %28, 0
  br i1 %.not43, label %29, label %52

29:                                               ; preds = %27
  %30 = tail call ptr @cl_cvdhead(ptr noundef nonnull %16) #18
  %.not44 = icmp eq ptr %30, null
  br i1 %.not44, label %52, label %31

31:                                               ; preds = %29
  %32 = tail call i32 (ptr, ptr, ...) @sprintf(ptr noundef nonnull dereferenceable(1) %16, ptr noundef nonnull dereferenceable(1) @.str.4, ptr noundef %1) #18
  %33 = tail call i32 @access(ptr noundef nonnull %16, i32 noundef 4) #18
  %.not45 = icmp eq i32 %33, 0
  br i1 %.not45, label %36, label %34

34:                                               ; preds = %31
  %35 = tail call i32 (ptr, ptr, ...) @sprintf(ptr noundef nonnull dereferenceable(1) %16, ptr noundef nonnull dereferenceable(1) @.str.5, ptr noundef %1) #18
  br label %36

36:                                               ; preds = %34, %31
  %37 = tail call i32 @access(ptr noundef nonnull %16, i32 noundef 4) #18
  %.not46 = icmp eq i32 %37, 0
  br i1 %.not46, label %38, label %49

38:                                               ; preds = %36
  %39 = tail call ptr @cl_cvdhead(ptr noundef nonnull %16) #18
  %.not47 = icmp eq ptr %39, null
  br i1 %.not47, label %49, label %40

40:                                               ; preds = %38
  tail call void @free(ptr noundef nonnull %16) #18
  %41 = getelementptr inbounds i8, ptr %30, i64 8
  %42 = load i32, ptr %41, align 8
  %43 = getelementptr inbounds i8, ptr %39, i64 8
  %44 = load i32, ptr %43, align 8
  %45 = icmp ugt i32 %42, %44
  br i1 %45, label %46, label %48

46:                                               ; preds = %40
  %47 = load ptr, ptr %8, align 8
  br label %48

48:                                               ; preds = %46, %40
  %.034 = phi ptr [ %47, %46 ], [ %1, %40 ]
  tail call void @cl_cvdfree(ptr noundef nonnull %39) #18
  br label %51

49:                                               ; preds = %38, %36
  tail call void @free(ptr noundef nonnull %16) #18
  %50 = load ptr, ptr %8, align 8
  br label %51

51:                                               ; preds = %49, %48
  %.1 = phi ptr [ %50, %49 ], [ %.034, %48 ]
  tail call void @cl_cvdfree(ptr noundef nonnull %30) #18
  br label %55

52:                                               ; preds = %29, %27
  tail call void @free(ptr noundef nonnull %16) #18
  br label %55

53:                                               ; preds = %0
  %54 = tail call noalias ptr @strdup(ptr noundef %1) #18
  br label %57

55:                                               ; preds = %3, %51, %52, %7
  %.2.ph = phi ptr [ %1, %3 ], [ %1, %7 ], [ %.1, %51 ], [ %1, %52 ]
  %56 = tail call noalias ptr @strdup(ptr noundef %.2.ph) #18
  tail call void @optfree(ptr noundef nonnull %2) #18
  br label %57

57:                                               ; preds = %53, %55, %18
  %.0 = phi ptr [ null, %18 ], [ %56, %55 ], [ %54, %53 ]
  ret ptr %.0
}